target datalayout = "e-m:e-p270:32:32-p271:32:32-p272:64:64-i64:64-i128:128-f80:128-n8:16:32:64-S128"
target triple = "x86_64-pc-linux-gnu"

%struct.XVisualInfo = type { ptr, i64, i32, i32, i32, i64, i64, i64, i32, i32 }

@X11_XVisualIDFromVisual = external global ptr, align 8
@X11_XGetVisualInfo = external global ptr, align 8
@X11_XFree = external global ptr, align 8

; Function Attrs: nounwind uwtable
define hidden zeroext i1 @X11_GetVisualInfoFromVisual(ptr noundef %0, ptr noundef %1, ptr noundef %2) #0 {
  %4 = alloca i1, align 1
  %5 = alloca ptr, align 8
  %6 = alloca ptr, align 8
  %7 = alloca ptr, align 8
  %8 = alloca ptr, align 8
  %9 = alloca i32, align 4
  %10 = alloca i32, align 4
  store ptr %0, ptr %5, align 8
  store ptr %1, ptr %6, align 8
  store ptr %2, ptr %7, align 8
  call void @llvm.lifetime.start.p0(i64 8, ptr %8) #6
  call void @llvm.lifetime.start.p0(i64 4, ptr %9) #6
  %11 = load ptr, ptr @X11_XVisualIDFromVisual, align 8
  %12 = load ptr, ptr %6, align 8
  %13 = call i64 %11(ptr noundef %12)
  %14 = load ptr, ptr %7, align 8
  %15 = getelementptr inbounds nuw %struct.XVisualInfo, ptr %14, i32 0, i32 1
  store i64 %13, ptr %15, align 8
  %16 = load ptr, ptr @X11_XGetVisualInfo, align 8
  %17 = load ptr, ptr %5, align 8
  %18 = load ptr, ptr %7, align 8
  %19 = call ptr %16(ptr noundef %17, i64 noundef 1, ptr noundef %18, ptr noundef %9)
  store ptr %19, ptr %8, align 8
  %20 = load ptr, ptr %8, align 8
  %21 = icmp ne ptr %20, null
  br i1 %21, label %22, label %28

22:                                               ; preds = %3
  %23 = load ptr, ptr %7, align 8
  %24 = load ptr, ptr %8, align 8
  call void @llvm.memcpy.p0.p0.i64(ptr align 8 %23, ptr align 8 %24, i64 64, i1 false)
  %25 = load ptr, ptr @X11_XFree, align 8
  %26 = load ptr, ptr %8, align 8
  %27 = call i32 %25(ptr noundef %26)
  store i1 true, ptr %4, align 1
  store i32 1, ptr %10, align 4
  br label %29

28:                                               ; preds = %3
  store i1 false, ptr %4, align 1
  store i32 1, ptr %10, align 4
  br label %29

29:                                               ; preds = %28, %22
  call void @llvm.lifetime.end.p0(i64 4, ptr %9) #6
  call void @llvm.lifetime.end.p0(i64 8, ptr %8) #6
  %30 = load i1, ptr %4, align 1
  ret i1 %30
}