; Function Attrs: nounwind uwtable
define hidden noundef zeroext i1 @X11_GetVisualInfoFromVisual(ptr noundef %0, ptr noundef %1, ptr noundef initializes((8, 16)) %2) local_unnamed_addr #0 {
  %4 = alloca i32, align 4
  call void @llvm.lifetime.start.p0(i64 4, ptr nonnull %4) #8
  %5 = load ptr, ptr @X11_XVisualIDFromVisual, align 8
  %6 = tail call i64 %5(ptr noundef %1) #8
  %7 = getelementptr inbounds nuw i8, ptr %2, i64 8
  store i64 %6, ptr %7, align 8
  %8 = load ptr, ptr @X11_XGetVisualInfo, align 8
  %9 = call ptr %8(ptr noundef %0, i64 noundef 1, ptr noundef %2, ptr noundef nonnull %4) #8
  %.not = icmp ne ptr %9, null
  br i1 %.not, label %10, label %13

10:                                               ; preds = %3
  call void @llvm.memcpy.p0.p0.i64(ptr noundef nonnull align 8 dereferenceable(64) %2, ptr noundef nonnull align 8 dereferenceable(64) %9, i64 64, i1 false)
  %11 = load ptr, ptr @X11_XFree, align 8
  %12 = call i32 %11(ptr noundef nonnull %9) #8
  br label %13

13:                                               ; preds = %3, %10
  call void @llvm.lifetime.end.p0(i64 4, ptr nonnull %4) #8
  ret i1 %.not
}